
timer_0_overflow_interupt_led_blink.elf:     file format elf32-avr

Sections:
Idx Name          Size      VMA       LMA       File off  Algn
  0 .data         00000000  00800100  00800100  000001de  2**0
                  CONTENTS, ALLOC, LOAD, DATA
  1 .text         0000016a  00000000  00000000  00000074  2**1
                  CONTENTS, ALLOC, LOAD, READONLY, CODE
  2 .bss          00000002  00800100  00800100  000001de  2**0
                  ALLOC
  3 .comment      00000030  00000000  00000000  000001de  2**0
                  CONTENTS, READONLY
  4 .note.gnu.avr.deviceinfo 00000040  00000000  00000000  00000210  2**2
                  CONTENTS, READONLY
  5 .debug_aranges 00000030  00000000  00000000  00000250  2**0
                  CONTENTS, READONLY, DEBUGGING
  6 .debug_info   000009cd  00000000  00000000  00000280  2**0
                  CONTENTS, READONLY, DEBUGGING
  7 .debug_abbrev 00000917  00000000  00000000  00000c4d  2**0
                  CONTENTS, READONLY, DEBUGGING
  8 .debug_line   000002b9  00000000  00000000  00001564  2**0
                  CONTENTS, READONLY, DEBUGGING
  9 .debug_frame  00000060  00000000  00000000  00001820  2**2
                  CONTENTS, READONLY, DEBUGGING
 10 .debug_str    000004a8  00000000  00000000  00001880  2**0
                  CONTENTS, READONLY, DEBUGGING
 11 .debug_loc    00000056  00000000  00000000  00001d28  2**0
                  CONTENTS, READONLY, DEBUGGING
 12 .debug_ranges 00000020  00000000  00000000  00001d7e  2**0
                  CONTENTS, READONLY, DEBUGGING

Disassembly of section .text:

00000000 <__vectors>:
   0:	0c 94 5a 00 	jmp	0xb4	; 0xb4 <__ctors_end>
   4:	0c 94 6c 00 	jmp	0xd8	; 0xd8 <__bad_interrupt>
   8:	0c 94 6c 00 	jmp	0xd8	; 0xd8 <__bad_interrupt>
   c:	0c 94 6c 00 	jmp	0xd8	; 0xd8 <__bad_interrupt>
  10:	0c 94 6c 00 	jmp	0xd8	; 0xd8 <__bad_interrupt>
  14:	0c 94 6c 00 	jmp	0xd8	; 0xd8 <__bad_interrupt>
  18:	0c 94 6c 00 	jmp	0xd8	; 0xd8 <__bad_interrupt>
  1c:	0c 94 6c 00 	jmp	0xd8	; 0xd8 <__bad_interrupt>
  20:	0c 94 6c 00 	jmp	0xd8	; 0xd8 <__bad_interrupt>
  24:	0c 94 6c 00 	jmp	0xd8	; 0xd8 <__bad_interrupt>
  28:	0c 94 6c 00 	jmp	0xd8	; 0xd8 <__bad_interrupt>
  2c:	0c 94 6c 00 	jmp	0xd8	; 0xd8 <__bad_interrupt>
  30:	0c 94 6c 00 	jmp	0xd8	; 0xd8 <__bad_interrupt>
  34:	0c 94 6c 00 	jmp	0xd8	; 0xd8 <__bad_interrupt>
  38:	0c 94 6c 00 	jmp	0xd8	; 0xd8 <__bad_interrupt>
  3c:	0c 94 6c 00 	jmp	0xd8	; 0xd8 <__bad_interrupt>
  40:	0c 94 6e 00 	jmp	0xdc	; 0xdc <__vector_16>
  44:	0c 94 6c 00 	jmp	0xd8	; 0xd8 <__bad_interrupt>
  48:	0c 94 6c 00 	jmp	0xd8	; 0xd8 <__bad_interrupt>
  4c:	0c 94 6c 00 	jmp	0xd8	; 0xd8 <__bad_interrupt>
  50:	0c 94 6c 00 	jmp	0xd8	; 0xd8 <__bad_interrupt>
  54:	0c 94 6c 00 	jmp	0xd8	; 0xd8 <__bad_interrupt>
  58:	0c 94 6c 00 	jmp	0xd8	; 0xd8 <__bad_interrupt>
  5c:	0c 94 6c 00 	jmp	0xd8	; 0xd8 <__bad_interrupt>
  60:	0c 94 6c 00 	jmp	0xd8	; 0xd8 <__bad_interrupt>
  64:	0c 94 6c 00 	jmp	0xd8	; 0xd8 <__bad_interrupt>
  68:	0c 94 6c 00 	jmp	0xd8	; 0xd8 <__bad_interrupt>
  6c:	0c 94 6c 00 	jmp	0xd8	; 0xd8 <__bad_interrupt>
  70:	0c 94 6c 00 	jmp	0xd8	; 0xd8 <__bad_interrupt>
  74:	0c 94 6c 00 	jmp	0xd8	; 0xd8 <__bad_interrupt>
  78:	0c 94 6c 00 	jmp	0xd8	; 0xd8 <__bad_interrupt>
  7c:	0c 94 6c 00 	jmp	0xd8	; 0xd8 <__bad_interrupt>
  80:	0c 94 6c 00 	jmp	0xd8	; 0xd8 <__bad_interrupt>
  84:	0c 94 6c 00 	jmp	0xd8	; 0xd8 <__bad_interrupt>
  88:	0c 94 6c 00 	jmp	0xd8	; 0xd8 <__bad_interrupt>
  8c:	0c 94 6c 00 	jmp	0xd8	; 0xd8 <__bad_interrupt>
  90:	0c 94 6c 00 	jmp	0xd8	; 0xd8 <__bad_interrupt>
  94:	0c 94 6c 00 	jmp	0xd8	; 0xd8 <__bad_interrupt>
  98:	0c 94 6c 00 	jmp	0xd8	; 0xd8 <__bad_interrupt>
  9c:	0c 94 6c 00 	jmp	0xd8	; 0xd8 <__bad_interrupt>
  a0:	0c 94 6c 00 	jmp	0xd8	; 0xd8 <__bad_interrupt>
  a4:	0c 94 6c 00 	jmp	0xd8	; 0xd8 <__bad_interrupt>
  a8:	0c 94 6c 00 	jmp	0xd8	; 0xd8 <__bad_interrupt>
  ac:	0c 94 6c 00 	jmp	0xd8	; 0xd8 <__bad_interrupt>
  b0:	0c 94 6c 00 	jmp	0xd8	; 0xd8 <__bad_interrupt>

000000b4 <__ctors_end>:
  b4:	11 24       	eor	r1, r1
  b6:	1f be       	out	0x3f, r1	; 63
  b8:	cf ef       	ldi	r28, 0xFF	; 255
  ba:	d8 e0       	ldi	r29, 0x08	; 8
  bc:	de bf       	out	0x3e, r29	; 62
  be:	cd bf       	out	0x3d, r28	; 61

000000c0 <__do_clear_bss>:
  c0:	21 e0       	ldi	r18, 0x01	; 1
  c2:	a0 e0       	ldi	r26, 0x00	; 0
  c4:	b1 e0       	ldi	r27, 0x01	; 1
  c6:	01 c0       	rjmp	.+2      	; 0xca <.do_clear_bss_start>

000000c8 <.do_clear_bss_loop>:
  c8:	1d 92       	st	X+, r1

000000ca <.do_clear_bss_start>:
  ca:	a2 30       	cpi	r26, 0x02	; 2
  cc:	b2 07       	cpc	r27, r18
  ce:	e1 f7       	brne	.-8      	; 0xc8 <.do_clear_bss_loop>
  d0:	0e 94 a7 00 	call	0x14e	; 0x14e <main>
  d4:	0c 94 b3 00 	jmp	0x166	; 0x166 <_exit>

000000d8 <__bad_interrupt>:
  d8:	0c 94 00 00 	jmp	0	; 0x0 <__vectors>

000000dc <__vector_16>:
		For 1s = 1/1.024ms = 976
		
	*/
	
ISR(TIMER0_OVF_vect)
{
  dc:	1f 92       	push	r1
  de:	0f 92       	push	r0
  e0:	0f b6       	in	r0, 0x3f	; 63
  e2:	0f 92       	push	r0
  e4:	11 24       	eor	r1, r1
  e6:	2f 93       	push	r18
  e8:	8f 93       	push	r24
  ea:	9f 93       	push	r25
	if(count >= 976)
  ec:	80 91 00 01 	lds	r24, 0x0100	; 0x800100 <__DATA_REGION_ORIGIN__>
  f0:	90 91 01 01 	lds	r25, 0x0101	; 0x800101 <__DATA_REGION_ORIGIN__+0x1>
  f4:	80 3d       	cpi	r24, 0xD0	; 208
  f6:	93 40       	sbci	r25, 0x03	; 3
  f8:	48 f0       	brcs	.+18     	; 0x10c <__vector_16+0x30>
	{
		PORTB ^= (1<<PB2);
  fa:	95 b1       	in	r25, 0x05	; 5
  fc:	84 e0       	ldi	r24, 0x04	; 4
  fe:	89 27       	eor	r24, r25
 100:	85 b9       	out	0x05, r24	; 5
		count = 0;
 102:	10 92 01 01 	sts	0x0101, r1	; 0x800101 <__DATA_REGION_ORIGIN__+0x1>
 106:	10 92 00 01 	sts	0x0100, r1	; 0x800100 <__DATA_REGION_ORIGIN__>
 10a:	09 c0       	rjmp	.+18     	; 0x11e <__vector_16+0x42>
	}
	else
	{
		count++;
 10c:	80 91 00 01 	lds	r24, 0x0100	; 0x800100 <__DATA_REGION_ORIGIN__>
 110:	90 91 01 01 	lds	r25, 0x0101	; 0x800101 <__DATA_REGION_ORIGIN__+0x1>
 114:	01 96       	adiw	r24, 0x01	; 1
 116:	90 93 01 01 	sts	0x0101, r25	; 0x800101 <__DATA_REGION_ORIGIN__+0x1>
 11a:	80 93 00 01 	sts	0x0100, r24	; 0x800100 <__DATA_REGION_ORIGIN__>
	}
	
}
 11e:	9f 91       	pop	r25
 120:	8f 91       	pop	r24
 122:	2f 91       	pop	r18
 124:	0f 90       	pop	r0
 126:	0f be       	out	0x3f, r0	; 63
 128:	0f 90       	pop	r0
 12a:	1f 90       	pop	r1
 12c:	18 95       	reti

0000012e <timer0_interrupt_init>:
void timer0_interrupt_init()
{
	//Step1: Enabling Global Interrupt
	sei();
 12e:	78 94       	sei
	
	//step 2 : Configuring Timer0 in normal mode: Mode0
	TCCR0A &= ~((1<< WGM00) | (1<<WGM01));
 130:	84 b5       	in	r24, 0x24	; 36
 132:	8c 7f       	andi	r24, 0xFC	; 252
 134:	84 bd       	out	0x24, r24	; 36
		
	//Step 3: Selecting Prescalar: 64
	TCCR0B |= (1<<CS01) | (1<<CS00);
 136:	85 b5       	in	r24, 0x25	; 37
 138:	83 60       	ori	r24, 0x03	; 3
 13a:	85 bd       	out	0x25, r24	; 37
	TCCR0B &= ~(1<<CS02);
 13c:	85 b5       	in	r24, 0x25	; 37
 13e:	8b 7f       	andi	r24, 0xFB	; 251
 140:	85 bd       	out	0x25, r24	; 37
		
	//Step4: Timer0 overflow interrupt
	TIMSK0 |= (1<<TOIE0);
 142:	ee e6       	ldi	r30, 0x6E	; 110
 144:	f0 e0       	ldi	r31, 0x00	; 0
 146:	80 81       	ld	r24, Z
 148:	81 60       	ori	r24, 0x01	; 1
 14a:	80 83       	st	Z, r24
 14c:	08 95       	ret

0000014e <main>:
}

int main(void)
{
	timer0_interrupt_init();
 14e:	0e 94 97 00 	call	0x12e	; 0x12e <timer0_interrupt_init>
	DDRB |= (1<<DDB1) | (1<<DDB2);
 152:	84 b1       	in	r24, 0x04	; 4
 154:	86 60       	ori	r24, 0x06	; 6
 156:	84 b9       	out	0x04, r24	; 4
	PORTB &= ~((1<<PB1) | (1<<PB2));
 158:	85 b1       	in	r24, 0x05	; 5
 15a:	89 7f       	andi	r24, 0xF9	; 249
 15c:	85 b9       	out	0x05, r24	; 5
	
    while (1) 
    {
		PORTB |= (1<<PB1);
 15e:	85 b1       	in	r24, 0x05	; 5
 160:	82 60       	ori	r24, 0x02	; 2
 162:	85 b9       	out	0x05, r24	; 5
 164:	fc cf       	rjmp	.-8      	; 0x15e <main+0x10>

00000166 <_exit>:
 166:	f8 94       	cli

00000168 <__stop_program>:
 168:	ff cf       	rjmp	.-2      	; 0x168 <__stop_program>
